target datalayout = "e-m:e-p270:32:32-p271:32:32-p272:64:64-i64:64-i128:128-f80:128-n8:16:32:64-S128"
target triple = "x86_64-pc-linux-gnu"

%"class.tf::Graph" = type { %"class.std::vector" }
%"class.std::vector" = type { %"struct.std::_Vector_base" }
%"struct.std::_Vector_base" = type { %"struct.std::_Vector_base<std::unique_ptr<tf::Node>, std::allocator<std::unique_ptr<tf::Node>>>::_Vector_impl" }
%"struct.std::_Vector_base<std::unique_ptr<tf::Node>, std::allocator<std::unique_ptr<tf::Node>>>::_Vector_impl" = type { %"struct.std::_Vector_base<std::unique_ptr<tf::Node>, std::allocator<std::unique_ptr<tf::Node>>>::_Vector_impl_data" }
%"struct.std::_Vector_base<std::unique_ptr<tf::Node>, std::allocator<std::unique_ptr<tf::Node>>>::_Vector_impl_data" = type { ptr, ptr, ptr }
%"struct.std::__detail::_Hash_node_base" = type { ptr }
%"struct.std::__detail::_Prime_rehash_policy" = type { float, i64 }
%"class.tf::Pipeline" = type { %"class.tf::Graph", i64, %"class.std::tuple.63", %"struct.std::array.75", %"class.std::vector.76", %"class.std::vector.81", %"class.std::vector.86", %"class.std::queue.91", %"class.std::unordered_map", %"class.std::unordered_map.117", i64 }
%"class.std::tuple.63" = type { %"struct.std::_Tuple_impl.64" }
%"struct.std::_Tuple_impl.64" = type { %"struct.std::_Tuple_impl.65", %"struct.std::_Head_base.72" }
%"struct.std::_Tuple_impl.65" = type { %"struct.std::_Tuple_impl.66", %"struct.std::_Head_base.69" }
%"struct.std::_Tuple_impl.66" = type { %"struct.std::_Head_base.67" }
%"struct.std::_Head_base.67" = type { %"class.tf::Pipe" }
%"class.tf::Pipe" = type { i32, %class.anon.68 }
%class.anon.68 = type { ptr, ptr }
%"struct.std::_Head_base.69" = type { %"class.tf::Pipe.70" }
%"class.tf::Pipe.70" = type { i32, %class.anon.71 }
%class.anon.71 = type { ptr, ptr }
%"struct.std::_Head_base.72" = type { %"class.tf::Pipe.73" }
%"class.tf::Pipe.73" = type { i32, %class.anon.74 }
%class.anon.74 = type { ptr, ptr }
%"struct.std::array.75" = type { [3 x %"struct.tf::Pipeline<tf::Pipe<(lambda at /home/dtcxzyw/WorkSpace/Projects/compilers/llvm-opt-benchmark/bench/taskflow/taskflow/examples/taskflow_pipeline.cpp:65:36)>, tf::Pipe<(lambda at /home/dtcxzyw/WorkSpace/Projects/compilers/llvm-opt-benchmark/bench/taskflow/taskflow/examples/taskflow_pipeline.cpp:75:36)>, tf::Pipe<(lambda at /home/dtcxzyw/WorkSpace/Projects/compilers/llvm-opt-benchmark/bench/taskflow/taskflow/examples/taskflow_pipeline.cpp:80:36)>>::PipeMeta"] }
%"struct.tf::Pipeline<tf::Pipe<(lambda at /home/dtcxzyw/WorkSpace/Projects/compilers/llvm-opt-benchmark/bench/taskflow/taskflow/examples/taskflow_pipeline.cpp:65:36)>, tf::Pipe<(lambda at /home/dtcxzyw/WorkSpace/Projects/compilers/llvm-opt-benchmark/bench/taskflow/taskflow/examples/taskflow_pipeline.cpp:75:36)>, tf::Pipe<(lambda at /home/dtcxzyw/WorkSpace/Projects/compilers/llvm-opt-benchmark/bench/taskflow/taskflow/examples/taskflow_pipeline.cpp:80:36)>>::PipeMeta" = type { i32 }
%"class.std::vector.76" = type { %"struct.std::_Vector_base.77" }
%"struct.std::_Vector_base.77" = type { %"struct.std::_Vector_base<std::array<tf::Pipeline<tf::Pipe<(lambda at /home/dtcxzyw/WorkSpace/Projects/compilers/llvm-opt-benchmark/bench/taskflow/taskflow/examples/taskflow_pipeline.cpp:65:36)>, tf::Pipe<(lambda at /home/dtcxzyw/WorkSpace/Projects/compilers/llvm-opt-benchmark/bench/taskflow/taskflow/examples/taskflow_pipeline.cpp:75:36)>, tf::Pipe<(lambda at /home/dtcxzyw/WorkSpace/Projects/compilers/llvm-opt-benchmark/bench/taskflow/taskflow/examples/taskflow_pipeline.cpp:80:36)>>::Line, 3>, std::allocator<std::array<tf::Pipeline<tf::Pipe<(lambda at /home/dtcxzyw/WorkSpace/Projects/compilers/llvm-opt-benchmark/bench/taskflow/taskflow/examples/taskflow_pipeline.cpp:65:36)>, tf::Pipe<(lambda at /home/dtcxzyw/WorkSpace/Projects/compilers/llvm-opt-benchmark/bench/taskflow/taskflow/examples/taskflow_pipeline.cpp:75:36)>, tf::Pipe<(lambda at /home/dtcxzyw/WorkSpace/Projects/compilers/llvm-opt-benchmark/bench/taskflow/taskflow/examples/taskflow_pipeline.cpp:80:36)>>::Line, 3>>>::_Vector_impl" }
%"struct.std::_Vector_base<std::array<tf::Pipeline<tf::Pipe<(lambda at /home/dtcxzyw/WorkSpace/Projects/compilers/llvm-opt-benchmark/bench/taskflow/taskflow/examples/taskflow_pipeline.cpp:65:36)>, tf::Pipe<(lambda at /home/dtcxzyw/WorkSpace/Projects/compilers/llvm-opt-benchmark/bench/taskflow/taskflow/examples/taskflow_pipeline.cpp:75:36)>, tf::Pipe<(lambda at /home/dtcxzyw/WorkSpace/Projects/compilers/llvm-opt-benchmark/bench/taskflow/taskflow/examples/taskflow_pipeline.cpp:80:36)>>::Line, 3>, std::allocator<std::array<tf::Pipeline<tf::Pipe<(lambda at /home/dtcxzyw/WorkSpace/Projects/compilers/llvm-opt-benchmark/bench/taskflow/taskflow/examples/taskflow_pipeline.cpp:65:36)>, tf::Pipe<(lambda at /home/dtcxzyw/WorkSpace/Projects/compilers/llvm-opt-benchmark/bench/taskflow/taskflow/examples/taskflow_pipeline.cpp:75:36)>, tf::Pipe<(lambda at /home/dtcxzyw/WorkSpace/Projects/compilers/llvm-opt-benchmark/bench/taskflow/taskflow/examples/taskflow_pipeline.cpp:80:36)>>::Line, 3>>>::_Vector_impl" = type { %"struct.std::_Vector_base<std::array<tf::Pipeline<tf::Pipe<(lambda at /home/dtcxzyw/WorkSpace/Projects/compilers/llvm-opt-benchmark/bench/taskflow/taskflow/examples/taskflow_pipeline.cpp:65:36)>, tf::Pipe<(lambda at /home/dtcxzyw/WorkSpace/Projects/compilers/llvm-opt-benchmark/bench/taskflow/taskflow/examples/taskflow_pipeline.cpp:75:36)>, tf::Pipe<(lambda at /home/dtcxzyw/WorkSpace/Projects/compilers/llvm-opt-benchmark/bench/taskflow/taskflow/examples/taskflow_pipeline.cpp:80:36)>>::Line, 3>, std::allocator<std::array<tf::Pipeline<tf::Pipe<(lambda at /home/dtcxzyw/WorkSpace/Projects/compilers/llvm-opt-benchmark/bench/taskflow/taskflow/examples/taskflow_pipeline.cpp:65:36)>, tf::Pipe<(lambda at /home/dtcxzyw/WorkSpace/Projects/compilers/llvm-opt-benchmark/bench/taskflow/taskflow/examples/taskflow_pipeline.cpp:75:36)>, tf::Pipe<(lambda at /home/dtcxzyw/WorkSpace/Projects/compilers/llvm-opt-benchmark/bench/taskflow/taskflow/examples/taskflow_pipeline.cpp:80:36)>>::Line, 3>>>::_Vector_impl_data" }
%"struct.std::_Vector_base<std::array<tf::Pipeline<tf::Pipe<(lambda at /home/dtcxzyw/WorkSpace/Projects/compilers/llvm-opt-benchmark/bench/taskflow/taskflow/examples/taskflow_pipeline.cpp:65:36)>, tf::Pipe<(lambda at /home/dtcxzyw/WorkSpace/Projects/compilers/llvm-opt-benchmark/bench/taskflow/taskflow/examples/taskflow_pipeline.cpp:75:36)>, tf::Pipe<(lambda at /home/dtcxzyw/WorkSpace/Projects/compilers/llvm-opt-benchmark/bench/taskflow/taskflow/examples/taskflow_pipeline.cpp:80:36)>>::Line, 3>, std::allocator<std::array<tf::Pipeline<tf::Pipe<(lambda at /home/dtcxzyw/WorkSpace/Projects/compilers/llvm-opt-benchmark/bench/taskflow/taskflow/examples/taskflow_pipeline.cpp:65:36)>, tf::Pipe<(lambda at /home/dtcxzyw/WorkSpace/Projects/compilers/llvm-opt-benchmark/bench/taskflow/taskflow/examples/taskflow_pipeline.cpp:75:36)>, tf::Pipe<(lambda at /home/dtcxzyw/WorkSpace/Projects/compilers/llvm-opt-benchmark/bench/taskflow/taskflow/examples/taskflow_pipeline.cpp:80:36)>>::Line, 3>>>::_Vector_impl_data" = type { ptr, ptr, ptr }
%"class.std::vector.81" = type { %"struct.std::_Vector_base.82" }
%"struct.std::_Vector_base.82" = type { %"struct.std::_Vector_base<tf::Task, std::allocator<tf::Task>>::_Vector_impl" }
%"struct.std::_Vector_base<tf::Task, std::allocator<tf::Task>>::_Vector_impl" = type { %"struct.std::_Vector_base<tf::Task, std::allocator<tf::Task>>::_Vector_impl_data" }
%"struct.std::_Vector_base<tf::Task, std::allocator<tf::Task>>::_Vector_impl_data" = type { ptr, ptr, ptr }
%"class.std::vector.86" = type { %"struct.std::_Vector_base.87" }
%"struct.std::_Vector_base.87" = type { %"struct.std::_Vector_base<tf::Pipeflow, std::allocator<tf::Pipeflow>>::_Vector_impl" }
%"struct.std::_Vector_base<tf::Pipeflow, std::allocator<tf::Pipeflow>>::_Vector_impl" = type { %"struct.std::_Vector_base<tf::Pipeflow, std::allocator<tf::Pipeflow>>::_Vector_impl_data" }
%"struct.std::_Vector_base<tf::Pipeflow, std::allocator<tf::Pipeflow>>::_Vector_impl_data" = type { ptr, ptr, ptr }
%"class.std::queue.91" = type { %"class.std::deque.92" }
%"class.std::deque.92" = type { %"class.std::_Deque_base.93" }
%"class.std::_Deque_base.93" = type { %"struct.std::_Deque_base<std::pair<unsigned long, unsigned long>, std::allocator<std::pair<unsigned long, unsigned long>>>::_Deque_impl" }
%"struct.std::_Deque_base<std::pair<unsigned long, unsigned long>, std::allocator<std::pair<unsigned long, unsigned long>>>::_Deque_impl" = type { %"struct.std::_Deque_base<std::pair<unsigned long, unsigned long>, std::allocator<std::pair<unsigned long, unsigned long>>>::_Deque_impl_data" }
%"struct.std::_Deque_base<std::pair<unsigned long, unsigned long>, std::allocator<std::pair<unsigned long, unsigned long>>>::_Deque_impl_data" = type { ptr, i64, %"struct.std::_Deque_iterator.97", %"struct.std::_Deque_iterator.97" }
%"struct.std::_Deque_iterator.97" = type { ptr, ptr, ptr, ptr }
%"class.std::unordered_map" = type { %"class.std::_Hashtable.98" }
%"class.std::_Hashtable.98" = type { ptr, i64, %"struct.std::__detail::_Hash_node_base", i64, %"struct.std::__detail::_Prime_rehash_policy", ptr }
%"class.std::unordered_map.117" = type { %"class.std::_Hashtable.118" }
%"class.std::_Hashtable.118" = type { ptr, i64, %"struct.std::__detail::_Hash_node_base", i64, %"struct.std::__detail::_Prime_rehash_policy", ptr }
%class.anon.506 = type { ptr }

; Function Attrs: mustprogress nounwind uwtable
define linkonce_odr dso_local noundef i64 @_ZNKSt6vectorIN2tf8PipeflowESaIS1_EE4sizeEv(ptr noundef nonnull align 8 dereferenceable(24) %0) #6 comdat align 2 {
  %2 = alloca ptr, align 8
  store ptr %0, ptr %2, align 8, !tbaa !1733
  %3 = load ptr, ptr %2, align 8
  %4 = getelementptr inbounds nuw %"struct.std::_Vector_base.87", ptr %3, i32 0, i32 0
  %5 = getelementptr inbounds nuw %"struct.std::_Vector_base<tf::Pipeflow, std::allocator<tf::Pipeflow>>::_Vector_impl_data", ptr %4, i32 0, i32 1
  %6 = load ptr, ptr %5, align 8, !tbaa !1736
  %7 = getelementptr inbounds nuw %"struct.std::_Vector_base.87", ptr %3, i32 0, i32 0
  %8 = getelementptr inbounds nuw %"struct.std::_Vector_base<tf::Pipeflow, std::allocator<tf::Pipeflow>>::_Vector_impl_data", ptr %7, i32 0, i32 0
  %9 = load ptr, ptr %8, align 8, !tbaa !1735
  %10 = ptrtoint ptr %6 to i64
  %11 = ptrtoint ptr %9 to i64
  %12 = sub i64 %10, %11
  %13 = sdiv exact i64 %12, 96
  ret i64 %13
}

; Function Attrs: mustprogress nounwind uwtable
define internal noundef i64 @"_ZNK2tf8PipelineIJNS_4PipeIZ4mainE3$_0EENS1_IZ4mainE3$_1EENS1_IZ4mainE3$_2EEEE9num_linesEv"(ptr noundef nonnull align 8 dereferenceable(392) %0) #6 align 2 {
  %2 = alloca ptr, align 8
  store ptr %0, ptr %2, align 8, !tbaa !114
  %3 = load ptr, ptr %2, align 8
  %4 = getelementptr inbounds nuw %"class.tf::Pipeline", ptr %3, i32 0, i32 6
  %5 = call noundef i64 @_ZNKSt6vectorIN2tf8PipeflowESaIS1_EE4sizeEv(ptr noundef nonnull align 8 dereferenceable(24) %4) #3
  ret i64 %5
}

; Function Attrs: inlinehint mustprogress nounwind uwtable
define internal noundef i32 @"_ZZN2tf8PipelineIJNS_4PipeIZ4mainE3$_0EENS1_IZ4mainE3$_1EENS1_IZ4mainE3$_2EEEE6_buildEvENKUlvE_clEv"(ptr noundef nonnull align 8 dereferenceable(8) %0) #8 align 2 {
  %2 = alloca ptr, align 8
  store ptr %0, ptr %2, align 8, !tbaa !13
  %3 = load ptr, ptr %2, align 8
  %4 = getelementptr inbounds nuw %class.anon.506, ptr %3, i32 0, i32 0
  %5 = load ptr, ptr %4, align 8, !tbaa !1908
  %6 = getelementptr inbounds nuw %"class.tf::Pipeline", ptr %5, i32 0, i32 1
  %7 = load i64, ptr %6, align 8, !tbaa !1897
  %8 = call noundef i64 @"_ZNK2tf8PipelineIJNS_4PipeIZ4mainE3$_0EENS1_IZ4mainE3$_1EENS1_IZ4mainE3$_2EEEE9num_linesEv"(ptr noundef nonnull align 8 dereferenceable(392) %5) #3
  %9 = urem i64 %7, %8
  %10 = trunc i64 %9 to i32
  ret i32 %10
}

; Function Attrs: mustprogress nounwind uwtable
define linkonce_odr dso_local noundef ptr @_ZNKSt9_Any_data9_M_accessEv(ptr noundef nonnull align 8 dereferenceable(16) %0) #6 comdat align 2 {
  %2 = alloca ptr, align 8
  store ptr %0, ptr %2, align 8, !tbaa !341
  %3 = load ptr, ptr %2, align 8
  %4 = getelementptr inbounds [16 x i8], ptr %3, i64 0, i64 0
  ret ptr %4
}

; Function Attrs: mustprogress uwtable
define internal noundef i32 @"_ZSt13__invoke_implIiRZN2tf8PipelineIJNS0_4PipeIZ4mainE3$_0EENS2_IZ4mainE3$_1EENS2_IZ4mainE3$_2EEEE6_buildEvEUlvE_JEET_St14__invoke_otherOT0_DpOT1_"(ptr noundef nonnull align 8 dereferenceable(8) %0) #4 {
  %2 = alloca ptr, align 8
  store ptr %0, ptr %2, align 8, !tbaa !13
  %3 = load ptr, ptr %2, align 8, !tbaa !13
  %4 = call noundef i32 @"_ZZN2tf8PipelineIJNS_4PipeIZ4mainE3$_0EENS1_IZ4mainE3$_1EENS1_IZ4mainE3$_2EEEE6_buildEvENKUlvE_clEv"(ptr noundef nonnull align 8 dereferenceable(8) %3)
  ret i32 %4
}

; Function Attrs: mustprogress nounwind uwtable
define internal noundef nonnull align 8 dereferenceable(8) ptr @"_ZNKSt9_Any_data9_M_accessIZN2tf8PipelineIJNS1_4PipeIZ4mainE3$_0EENS3_IZ4mainE3$_1EENS3_IZ4mainE3$_2EEEE6_buildEvEUlvE_EERKT_v"(ptr noundef nonnull align 8 dereferenceable(16) %0) #6 align 2 {
  %2 = alloca ptr, align 8
  store ptr %0, ptr %2, align 8, !tbaa !341
  %3 = load ptr, ptr %2, align 8
  %4 = call noundef ptr @_ZNKSt9_Any_data9_M_accessEv(ptr noundef nonnull align 8 dereferenceable(16) %3) #3
  ret ptr %4
}

; Function Attrs: mustprogress uwtable
define internal noundef i32 @"_ZSt10__invoke_rIiRZN2tf8PipelineIJNS0_4PipeIZ4mainE3$_0EENS2_IZ4mainE3$_1EENS2_IZ4mainE3$_2EEEE6_buildEvEUlvE_JEENSt9enable_ifIX16is_invocable_r_vIT_T0_DpT1_EESD_E4typeEOSE_DpOSF_"(ptr noundef nonnull align 8 dereferenceable(8) %0) #4 {
  %2 = alloca ptr, align 8
  store ptr %0, ptr %2, align 8, !tbaa !13
  %3 = load ptr, ptr %2, align 8, !tbaa !13
  %4 = call noundef i32 @"_ZSt13__invoke_implIiRZN2tf8PipelineIJNS0_4PipeIZ4mainE3$_0EENS2_IZ4mainE3$_1EENS2_IZ4mainE3$_2EEEE6_buildEvEUlvE_JEET_St14__invoke_otherOT0_DpOT1_"(ptr noundef nonnull align 8 dereferenceable(8) %3)
  ret i32 %4
}

; Function Attrs: mustprogress nounwind uwtable
define internal noundef ptr @"_ZNSt14_Function_base13_Base_managerIZN2tf8PipelineIJNS1_4PipeIZ4mainE3$_0EENS3_IZ4mainE3$_1EENS3_IZ4mainE3$_2EEEE6_buildEvEUlvE_E14_M_get_pointerERKSt9_Any_data"(ptr noundef nonnull align 8 dereferenceable(16) %0) #6 align 2 {
  %2 = alloca ptr, align 8
  %3 = alloca ptr, align 8
  store ptr %0, ptr %2, align 8, !tbaa !341
  call void @llvm.lifetime.start.p0(i64 8, ptr %3) #3
  %4 = load ptr, ptr %2, align 8, !tbaa !341
  %5 = call noundef nonnull align 8 dereferenceable(8) ptr @"_ZNKSt9_Any_data9_M_accessIZN2tf8PipelineIJNS1_4PipeIZ4mainE3$_0EENS3_IZ4mainE3$_1EENS3_IZ4mainE3$_2EEEE6_buildEvEUlvE_EERKT_v"(ptr noundef nonnull align 8 dereferenceable(16) %4) #3
  store ptr %5, ptr %3, align 8, !tbaa !13
  %6 = load ptr, ptr %3, align 8, !tbaa !13
  call void @llvm.lifetime.end.p0(i64 8, ptr %3) #3
  ret ptr %6
}

; Function Attrs: mustprogress uwtable
define internal noundef i32 @"_ZNSt17_Function_handlerIFivEZN2tf8PipelineIJNS1_4PipeIZ4mainE3$_0EENS3_IZ4mainE3$_1EENS3_IZ4mainE3$_2EEEE6_buildEvEUlvE_E9_M_invokeERKSt9_Any_data"(ptr noundef nonnull align 8 dereferenceable(16) %0) #4 align 2 {
  %2 = alloca ptr, align 8
  store ptr %0, ptr %2, align 8, !tbaa !341
  %3 = load ptr, ptr %2, align 8, !tbaa !341
  %4 = call noundef ptr @"_ZNSt14_Function_base13_Base_managerIZN2tf8PipelineIJNS1_4PipeIZ4mainE3$_0EENS3_IZ4mainE3$_1EENS3_IZ4mainE3$_2EEEE6_buildEvEUlvE_E14_M_get_pointerERKSt9_Any_data"(ptr noundef nonnull align 8 dereferenceable(16) %3) #3
  %5 = call noundef i32 @"_ZSt10__invoke_rIiRZN2tf8PipelineIJNS0_4PipeIZ4mainE3$_0EENS2_IZ4mainE3$_1EENS2_IZ4mainE3$_2EEEE6_buildEvEUlvE_JEENSt9enable_ifIX16is_invocable_r_vIT_T0_DpT1_EESD_E4typeEOSE_DpOSF_"(ptr noundef nonnull align 8 dereferenceable(8) %4)
  ret i32 %5
}